target datalayout = "e-m:e-p270:32:32-p271:32:32-p272:64:64-i64:64-i128:128-f80:128-n8:16:32:64-S128"
target triple = "x86_64-pc-linux-gnu"

%"struct.duckdb::timestamp_ns_t" = type { %"struct.duckdb::timestamp_t" }
%"struct.duckdb::timestamp_t" = type { i64 }
%"struct.duckdb::Int96" = type { [3 x i32] }

; Function Attrs: mustprogress nounwind uwtable
define linkonce_odr noundef i64 @_ZN6duckdb4LoadIlEEKT_PKh(ptr noundef %0) #2 comdat {
  %2 = alloca ptr, align 8
  %3 = alloca i64, align 8
  store ptr %0, ptr %2, align 8, !tbaa !19
  call void @llvm.lifetime.start.p0(i64 8, ptr %3) #7
  %4 = load ptr, ptr %2, align 8, !tbaa !19
  call void @llvm.memcpy.p0.p0.i64(ptr align 8 %3, ptr align 1 %4, i64 8, i1 false)
  %5 = load i64, ptr %3, align 8, !tbaa !11
  call void @llvm.lifetime.end.p0(i64 8, ptr %3) #7
  ret i64 %5
}

; Function Attrs: mustprogress nounwind uwtable
define linkonce_odr noundef ptr @_ZN6duckdb19const_data_ptr_castIjEEPKhPKT_(ptr noundef %0) #2 comdat {
  %2 = alloca ptr, align 8
  store ptr %0, ptr %2, align 8, !tbaa !21
  %3 = load ptr, ptr %2, align 8, !tbaa !21
  ret ptr %3
}

; Function Attrs: inlinehint mustprogress nounwind uwtable
define internal noundef i64 @_ZN6duckdbL21ImpalaTimestampToDaysERKNS_5Int96E(ptr noundef nonnull align 4 dereferenceable(12) %0) #5 {
  %2 = alloca ptr, align 8
  store ptr %0, ptr %2, align 8, !tbaa !3
  %3 = load ptr, ptr %2, align 8, !tbaa !3
  %4 = getelementptr inbounds nuw %"struct.duckdb::Int96", ptr %3, i32 0, i32 0
  %5 = getelementptr inbounds [3 x i32], ptr %4, i64 0, i64 2
  %6 = load i32, ptr %5, align 4, !tbaa !15
  %7 = zext i32 %6 to i64
  %8 = sub nsw i64 %7, 2440588
  ret i64 %8
}

; Function Attrs: mustprogress uwtable
define internal noundef i64 @_ZN6duckdbL28ImpalaTimestampToNanosecondsERKNS_5Int96E(ptr noundef nonnull align 4 dereferenceable(12) %0) #0 {
  %2 = alloca ptr, align 8
  %3 = alloca i64, align 8
  %4 = alloca i64, align 8
  store ptr %0, ptr %2, align 8, !tbaa !3
  call void @llvm.lifetime.start.p0(i64 8, ptr %3) #7
  %5 = load ptr, ptr %2, align 8, !tbaa !3
  %6 = call noundef i64 @_ZN6duckdbL21ImpalaTimestampToDaysERKNS_5Int96E(ptr noundef nonnull align 4 dereferenceable(12) %5)
  store i64 %6, ptr %3, align 8, !tbaa !11
  call void @llvm.lifetime.start.p0(i64 8, ptr %4) #7
  %7 = load ptr, ptr %2, align 8, !tbaa !3
  %8 = getelementptr inbounds nuw %"struct.duckdb::Int96", ptr %7, i32 0, i32 0
  %9 = getelementptr inbounds [3 x i32], ptr %8, i64 0, i64 0
  %10 = call noundef ptr @_ZN6duckdb19const_data_ptr_castIjEEPKhPKT_(ptr noundef %9)
  %11 = call noundef i64 @_ZN6duckdb4LoadIlEEKT_PKh(ptr noundef %10)
  store i64 %11, ptr %4, align 8, !tbaa !11
  %12 = load i64, ptr %3, align 8, !tbaa !11
  %13 = mul nsw i64 %12, 86400000000000
  %14 = load i64, ptr %4, align 8, !tbaa !11
  %15 = add nsw i64 %13, %14
  call void @llvm.lifetime.end.p0(i64 8, ptr %4) #7
  call void @llvm.lifetime.end.p0(i64 8, ptr %3) #7
  ret i64 %15
}

; Function Attrs: mustprogress uwtable
define i64 @_ZN6duckdb28ImpalaTimestampToTimestampNSERKNS_5Int96E(ptr noundef nonnull align 4 dereferenceable(12) %0) #0 {
  %2 = alloca %"struct.duckdb::timestamp_ns_t", align 8
  %3 = alloca ptr, align 8
  store ptr %0, ptr %3, align 8, !tbaa !3
  %4 = load ptr, ptr %3, align 8, !tbaa !3
  %5 = call noundef i64 @_ZN6duckdbL28ImpalaTimestampToNanosecondsERKNS_5Int96E(ptr noundef nonnull align 4 dereferenceable(12) %4)
  %6 = getelementptr inbounds nuw %"struct.duckdb::timestamp_t", ptr %2, i32 0, i32 0
  store i64 %5, ptr %6, align 8, !tbaa !8
  %7 = getelementptr inbounds nuw %"struct.duckdb::timestamp_ns_t", ptr %2, i32 0, i32 0
  %8 = getelementptr inbounds nuw %"struct.duckdb::timestamp_t", ptr %7, i32 0, i32 0
  %9 = load i64, ptr %8, align 8
  ret i64 %9
}