; Function Attrs: mustprogress nofree norecurse nosync nounwind willreturn memory(argmem: read) uwtable
define i64 @_ZN6duckdb28ImpalaTimestampToTimestampNSERKNS_5Int96E(ptr noundef nonnull readonly align 4 captures(none) dereferenceable(12) %0) local_unnamed_addr #0 {
  %.val = load i64, ptr %0, align 4
  %2 = getelementptr inbounds nuw i8, ptr %0, i64 8
  %.val1 = load i32, ptr %2, align 4, !tbaa !3
  %3 = zext i32 %.val1 to i64
  %4 = mul i64 %3, 86400000000000
  %5 = add i64 %.val, -7952618389194932224
  %6 = add i64 %5, %4
  ret i64 %6
}